; Function Attrs: nounwind uwtable
define dso_local i64 @sha512_bytea(ptr noundef readonly captures(none) %0) local_unnamed_addr #0 {
  %2 = getelementptr inbounds nuw i8, ptr %0, i64 32
  %3 = load i64, ptr %2, align 8
  %4 = inttoptr i64 %3 to ptr
  %5 = tail call ptr @pg_detoast_datum_packed(ptr noundef %4) #6
  %6 = tail call fastcc ptr @cryptohash_internal(i32 noundef 5, ptr noundef %5)
  %7 = ptrtoint ptr %6 to i64
  ret i64 %7
}